Certificate:
    Data:
        Version: 1 (0x0)
        Serial Number:
            1b:b7:d4:e2:50:fa:77:fe:7b:db:42:09:8e:83:6c:f2:2e:b5:1e:ac
        Signature Algorithm: NULL
        Issuer: CN = james
        Validity
            Not Before: Apr 27 09:18:29 2020 GMT
            Not After : Apr 27 09:18:29 2021 GMT
        Subject: CN = james
        Subject Public Key Info:
            Public Key Algorithm: rsaEncryption
                RSA Public-Key: (2048 bit)
                Modulus:
                    00:ad:2c:45:cc:f1:76:42:d7:05:bd:06:42:76:f1:
                    2a:0b:2d:0d:37:a2:1b:2c:78:ad:f8:89:b0:49:6f:
                    f0:c0:7e:dc:36:57:2b:4d:d2:dc:32:15:06:de:1e:
                    02:b2:15:25:9b:df:69:a5:ed:b4:42:8f:64:7f:e4:
                    26:ee:22:e1:6f:4d:60:0f:f9:dd:23:5d:ad:2c:ae:
                    36:10:3f:02:eb:d6:47:52:b7:5b:46:74:bf:3c:a8:
                    45:e1:be:0b:6e:19:59:c0:6f:dd:38:ed:43:7b:33:
                    02:d4:a4:06:49:5b:45:73:92:f7:e4:03:25:57:08:
                    56:92:0a:f8:d9:12:9e:00:4f:53:e1:c9:83:e3:20:
                    29:9b:b7:b9:7e:c6:88:6a:75:ad:4a:48:83:65:ef:
                    9e:ce:14:3e:d7:4d:a9:11:f0:25:18:b2:6f:84:30:
                    76:36:d2:10:66:af:40:55:39:f1:65:9f:30:ef:e4:
                    65:ec:78:1f:af:bd:e6:bb:eb:6e:c3:f0:27:0f:20:
                    1a:fc:38:d7:ed:44:de:37:9f:b4:96:52:97:7a:33:
                    29:76:c9:f8:14:34:e9:61:d1:46:a5:da:25:04:4d:
                    da:b8:57:6c:6a:3a:1e:94:3c:e4:50:88:97:a6:68:
                    b0:1e:ce:b4:77:dc:d6:02:99:80:db:ce:b8:8e:f6:
                    c6:09
                Exponent: 65537 (0x10001)
    Signature Algorithm: NULL
-----BEGIN CERTIFICATE-----
MIICtTCCAZ0CFBjOaVJZr+hq48wZ2KL0v11RvF4hMA0GCSqGSIb3DQEBCwUAMB4x
HDAaBgNVBAMME3Jvb3QueW91cmRvbWFpbi5jb20wHhcNMjAwNDI3MDkxODI5WhcN
MjEwNDI3MDkxODI5WjAQMQ4wDAYDVQQDDAVqYW1lczCCASIwDQYJKoZIhvcNAQEB
BQADggEPADCCAQoCggEBAK0sRczxdkLXBb0GQnbxKgstDTeiGyx4rfiJsElv8MB+
3DZXK03S3DIVBt4eArIVJZvfaaXttEKPZH/kJu4i4W9NYA/53SNdrSyuNhA/AuvW
R1K3W0Z0vzyoReG+C24ZWcBv3TjtQ3szAtSkBklbRXOS9+QDJVcIVpIK+NkSngBP
U+HJg+MgKZu3uX7GiGp1rUpIg2Xvns4UPtdNqRHwJRiyb4QwdjbSEGavQFU58WWf
MO/kZex4H6+95rvrbsPwJw8gGvw41+1E3jeftJZSl3ozKXbJ+BQ06WHRRqXaJQRN
2rhXbGo6HpQ85FCIl6ZosB7OtHfc1gKZgNvOuI72xgkCAwEAATANBgkqhkiG9w0B
AQsFAAOCAQEApGg7b07VBoZbXPPQMLN1Pop6DTSawNw2WgwcU2vVbPnJJOQev603
LnhdMTWS4Bs/o3GfM4oH//NaoL1snOHc3R6ldGbde2N2O2/ObKugAU2Reke/qnXs
9VDd1pGiwvNUcGarWAQki2+sUuHG+dXNvz/TedMrd2FdWcjP9h7oL1T4srdXQl5k
5vPVM0c6StFBap9ZjIW1HFbeMAGR2Yoi/bxBLuV2Jw8OV1ye7Rc8sjfDN6F9OQ2L
2a703Q6Le4pT/WfqEsZLcQgIdP++KmS7iBWBTLgzrhODtduyzQUYAJ9P9MAGoYxj
WYzgYMC5JSKZLDd2FMyx+OaJcmcyz8Po9Q==
-----END CERTIFICATE-----
