Certificate:
    Data:
        Version: 1 (0x0)
        Serial Number:
            12:5b:b3:2c:c2:ec:9b:7a:f2:5c:0d:b1:93:00:eb:d1:15:42:69:3a
        Signature Algorithm: NULL
        Issuer: CN = root.yourdomain.com
        Validity
            Not Before: Apr 27 07:48:08 2020 GMT
            Not After : Apr 27 07:48:08 2021 GMT
        Subject: CN = root.yourdomain.com
        Subject Public Key Info:
            Public Key Algorithm: rsaEncryption
                RSA Public-Key: (2048 bit)
                Modulus:
                    00:b6:79:31:0d:6f:c6:cf:13:1c:10:2b:59:f7:91:
                    dc:fd:c7:74:e9:ee:f7:21:74:bc:ce:ba:5a:e8:53:
                    6e:d0:aa:0f:36:30:6e:91:73:86:46:65:b4:a1:a4:
                    f8:9c:3f:ff:6f:78:90:2e:f4:76:a8:c4:f1:97:72:
                    ca:2a:d5:34:0c:8f:06:e7:6a:e6:a4:97:92:43:53:
                    f9:51:93:0a:57:d8:5a:92:9e:fd:6c:31:0a:8c:dd:
                    29:94:36:14:0e:05:e9:31:13:49:80:a7:68:77:1b:
                    07:b7:68:d1:7d:d2:91:22:3e:2a:80:cd:c7:2e:ef:
                    85:88:c6:09:67:ed:c9:de:03:35:e3:78:15:03:75:
                    42:e7:88:fa:ad:48:dd:92:f2:fe:4e:80:65:2b:4c:
                    e5:82:0a:89:bf:54:98:f5:ac:c1:82:df:93:52:77:
                    7f:f2:36:03:9f:3a:27:4d:08:32:fb:2c:f4:a2:85:
                    f4:12:78:0d:8d:15:dd:d8:cf:12:a9:9c:7f:43:96:
                    58:61:9d:cc:a5:b9:9b:bc:ff:b2:1e:ac:85:20:c1:
                    88:66:d6:d7:fe:fe:be:b5:43:15:e3:76:7a:e2:ab:
                    60:6f:f9:24:38:35:6e:7c:ea:fa:b0:89:54:82:27:
                    7c:95:2c:54:9b:a5:b4:3e:c6:da:bc:6f:45:0b:15:
                    00:bd
                Exponent: 65537 (0x10001)
    Signature Algorithm: NULL
-----BEGIN CERTIFICATE-----
MIICwzCCAasCFBJbsyzC7Jt68lwNsZMA69EVQmk6MA0GCSqGSIb3DQEBCwUAMB4x
HDAaBgNVBAMME3Jvb3QueW91cmRvbWFpbi5jb20wHhcNMjAwNDI3MDc0ODA4WhcN
MjEwNDI3MDc0ODA4WjAeMRwwGgYDVQQDDBNyb290LnlvdXJkb21haW4uY29tMIIB
IjANBgkqhkiG9w0BAQEFAAOCAQ8AMIIBCgKCAQEAtnkxDW/GzxMcECtZ95Hc/cd0
6e73IXS8zrpa6FNu0KoPNjBukXOGRmW0oaT4nD//b3iQLvR2qMTxl3LKKtU0DI8G
52rmpJeSQ1P5UZMKV9hakp79bDEKjN0plDYUDgXpMRNJgKdodxsHt2jRfdKRIj4q
gM3HLu+FiMYJZ+3J3gM143gVA3VC54j6rUjdkvL+ToBlK0zlggqJv1SY9azBgt+T
Und/8jYDnzonTQgy+yz0ooX0EngNjRXd2M8SqZx/Q5ZYYZ3MpbmbvP+yHqyFIMGI
ZtbX/v6+tUMV43Z64qtgb/kkODVufOr6sIlUgid8lSxUm6W0PsbavG9FCxUAvQID
AQABMA0GCSqGSIb3DQEBCwUAA4IBAQBv8Wu63olh8D8LBcramP/gY317t83ZtdOG
EJOCUwZHlkPA7NNF8Vi1J8WFJuCvtrMXm/adIV0gIPmhfIFNxxyeGZGmLXZWG+MH
o0YjZzze/jZSD71TIaJVhPHclPzqDkVSIJ4DnN5cGk4oJbd3L7S6gx4hZLNgEEZ4
BQ+RmpW+FepkcMvOBvbn2ZWCq1D9pusA0ytzmatDNm4VMv6xXS0+scJi/k0YQLH9
F8Dn+3bqU+iMnaMemJNR4iL5cfNXm6KdiNUBt1UTBIVJgah00IY2gOy0dJUiJOlb
WG4wiIfGIW8luhRtgfvrXs3C+PIK435xUoW1vAOQcCjZmULgSi7v
-----END CERTIFICATE-----
